target datalayout = "e-m:e-p270:32:32-p271:32:32-p272:64:64-i64:64-i128:128-f80:128-n8:16:32:64-S128"
target triple = "x86_64-pc-linux-gnu"

%struct.AVProbeData = type { ptr, ptr, i32, ptr }
%struct.AVFormatContext = type { ptr, ptr, ptr, ptr, ptr, i32, i32, ptr, i32, ptr, i32, ptr, ptr, i64, i64, i64, i32, i32, i32, i64, i64, ptr, i32, i32, ptr, i32, i32, i32, i32, ptr, i64, i32, i32, %struct.AVIOInterruptCB, i32, i32, i32, i32, i64, i32, i32, i32, i32, i32, i32, i32, i32, i32, i32, i32, i32, i64, i32, i32, i32, i32, i32, ptr, ptr, ptr, ptr, i32, ptr, ptr, ptr, ptr, i32, ptr, ptr, i64, ptr, ptr, ptr, i64 }
%struct.AVIOInterruptCB = type { ptr, ptr }
%struct.AVStream = type { ptr, i32, i32, ptr, ptr, %struct.AVRational, i64, i64, i64, i32, i32, %struct.AVRational, ptr, %struct.AVRational, %struct.AVPacket, i32, %struct.AVRational, i32 }
%struct.AVPacket = type { ptr, i64, i64, ptr, i32, i32, i32, ptr, i32, i64, i64, ptr, ptr, %struct.AVRational }
%struct.AVRational = type { i32, i32 }
%struct.AVCodecParameters = type { i32, i32, i32, ptr, i32, ptr, i32, i32, i64, i32, i32, i32, i32, i32, i32, %struct.AVRational, %struct.AVRational, i32, i32, i32, i32, i32, i32, i32, %struct.AVChannelLayout, i32, i32, i32, i32, i32, i32 }
%struct.AVChannelLayout = type { i32, i32, %union.anon, ptr }
%union.anon = type { i64 }

@.str = private unnamed_addr constant [5 x i8] c"wady\00", align 1
@.str.1 = private unnamed_addr constant [12 x i8] c"Marble WADY\00", align 1
@.str.2 = private unnamed_addr constant [4 x i8] c"way\00", align 1
@ff_wady_demuxer = constant { { ptr, ptr, i32, [4 x i8], ptr, ptr, ptr, ptr }, i32, i32, i32, [4 x i8], ptr, ptr, ptr, ptr, ptr, ptr, ptr, ptr, ptr, ptr } { { ptr, ptr, i32, [4 x i8], ptr, ptr, ptr, ptr } { ptr @.str, ptr @.str.1, i32 256, [4 x i8] zeroinitializer, ptr @.str.2, ptr null, ptr null, ptr null }, i32 0, i32 0, i32 0, [4 x i8] zeroinitializer, ptr @wady_probe, ptr @wady_read_header, ptr @ff_pcm_read_packet, ptr null, ptr @ff_pcm_read_seek, ptr null, ptr null, ptr null, ptr null, ptr null }, align 8

; Function Attrs: nounwind uwtable
define internal i32 @wady_probe(ptr noundef %0) #0 {
  %2 = alloca i32, align 4
  %3 = alloca ptr, align 8
  store ptr %0, ptr %3, align 8, !tbaa !4
  %4 = load ptr, ptr %3, align 8, !tbaa !4
  %5 = getelementptr inbounds nuw %struct.AVProbeData, ptr %4, i32 0, i32 1
  %6 = load ptr, ptr %5, align 8, !tbaa !9
  %7 = load i32, ptr %6, align 1, !tbaa !13
  %8 = icmp ne i32 %7, 1497645399
  br i1 %8, label %9, label %10

9:                                                ; preds = %1
  store i32 0, ptr %2, align 4
  br label %51

10:                                               ; preds = %1
  %11 = load ptr, ptr %3, align 8, !tbaa !4
  %12 = getelementptr inbounds nuw %struct.AVProbeData, ptr %11, i32 0, i32 1
  %13 = load ptr, ptr %12, align 8, !tbaa !9
  %14 = getelementptr inbounds i8, ptr %13, i64 4
  %15 = load i8, ptr %14, align 1, !tbaa !13
  %16 = zext i8 %15 to i32
  %17 = icmp ne i32 %16, 0
  br i1 %17, label %49, label %18

18:                                               ; preds = %10
  %19 = load ptr, ptr %3, align 8, !tbaa !4
  %20 = getelementptr inbounds nuw %struct.AVProbeData, ptr %19, i32 0, i32 1
  %21 = load ptr, ptr %20, align 8, !tbaa !9
  %22 = getelementptr inbounds i8, ptr %21, i64 5
  %23 = load i8, ptr %22, align 1, !tbaa !13
  %24 = zext i8 %23 to i32
  %25 = icmp eq i32 %24, 0
  br i1 %25, label %49, label %26

26:                                               ; preds = %18
  %27 = load ptr, ptr %3, align 8, !tbaa !4
  %28 = getelementptr inbounds nuw %struct.AVProbeData, ptr %27, i32 0, i32 1
  %29 = load ptr, ptr %28, align 8, !tbaa !9
  %30 = getelementptr inbounds i8, ptr %29, i64 6
  %31 = load i16, ptr %30, align 1, !tbaa !13
  %32 = zext i16 %31 to i32
  %33 = icmp eq i32 %32, 0
  br i1 %33, label %49, label %34

34:                                               ; preds = %26
  %35 = load ptr, ptr %3, align 8, !tbaa !4
  %36 = getelementptr inbounds nuw %struct.AVProbeData, ptr %35, i32 0, i32 1
  %37 = load ptr, ptr %36, align 8, !tbaa !9
  %38 = getelementptr inbounds i8, ptr %37, i64 6
  %39 = load i16, ptr %38, align 1, !tbaa !13
  %40 = zext i16 %39 to i32
  %41 = icmp sgt i32 %40, 2
  br i1 %41, label %49, label %42

42:                                               ; preds = %34
  %43 = load ptr, ptr %3, align 8, !tbaa !4
  %44 = getelementptr inbounds nuw %struct.AVProbeData, ptr %43, i32 0, i32 1
  %45 = load ptr, ptr %44, align 8, !tbaa !9
  %46 = getelementptr inbounds i8, ptr %45, i64 8
  %47 = load i32, ptr %46, align 1, !tbaa !13
  %48 = icmp sle i32 %47, 0
  br i1 %48, label %49, label %50

49:                                               ; preds = %42, %34, %26, %18, %10
  store i32 0, ptr %2, align 4
  br label %51

50:                                               ; preds = %42
  store i32 66, ptr %2, align 4
  br label %51

51:                                               ; preds = %50, %49, %9
  %52 = load i32, ptr %2, align 4
  ret i32 %52
}

; Function Attrs: nounwind uwtable
define internal i32 @wady_read_header(ptr noundef %0) #0 {
  %2 = alloca i32, align 4
  %3 = alloca ptr, align 8
  %4 = alloca ptr, align 8
  %5 = alloca ptr, align 8
  %6 = alloca i32, align 4
  %7 = alloca i32, align 4
  %8 = alloca ptr, align 8
  %9 = alloca i32, align 4
  store ptr %0, ptr %3, align 8, !tbaa !14
  call void @llvm.lifetime.start.p0(i64 8, ptr %4) #3
  %10 = load ptr, ptr %3, align 8, !tbaa !14
  %11 = getelementptr inbounds nuw %struct.AVFormatContext, ptr %10, i32 0, i32 4
  %12 = load ptr, ptr %11, align 8, !tbaa !16
  store ptr %12, ptr %4, align 8, !tbaa !31
  call void @llvm.lifetime.start.p0(i64 8, ptr %5) #3
  call void @llvm.lifetime.start.p0(i64 4, ptr %6) #3
  call void @llvm.lifetime.start.p0(i64 4, ptr %7) #3
  call void @llvm.lifetime.start.p0(i64 8, ptr %8) #3
  %13 = load ptr, ptr %4, align 8, !tbaa !31
  %14 = call i64 @avio_skip(ptr noundef %13, i64 noundef 5)
  %15 = load ptr, ptr %3, align 8, !tbaa !14
  %16 = call ptr @avformat_new_stream(ptr noundef %15, ptr noundef null)
  store ptr %16, ptr %8, align 8, !tbaa !32
  %17 = load ptr, ptr %8, align 8, !tbaa !32
  %18 = icmp ne ptr %17, null
  br i1 %18, label %20, label %19

19:                                               ; preds = %1
  store i32 -12, ptr %2, align 4
  store i32 1, ptr %9, align 4
  br label %73

20:                                               ; preds = %1
  %21 = load ptr, ptr %8, align 8, !tbaa !32
  %22 = getelementptr inbounds nuw %struct.AVStream, ptr %21, i32 0, i32 3
  %23 = load ptr, ptr %22, align 8, !tbaa !34
  store ptr %23, ptr %5, align 8, !tbaa !41
  %24 = load ptr, ptr %5, align 8, !tbaa !41
  %25 = getelementptr inbounds nuw %struct.AVCodecParameters, ptr %24, i32 0, i32 0
  store i32 1, ptr %25, align 8, !tbaa !42
  %26 = load ptr, ptr %5, align 8, !tbaa !41
  %27 = getelementptr inbounds nuw %struct.AVCodecParameters, ptr %26, i32 0, i32 1
  store i32 81927, ptr %27, align 4, !tbaa !45
  %28 = load ptr, ptr %5, align 8, !tbaa !41
  %29 = getelementptr inbounds nuw %struct.AVCodecParameters, ptr %28, i32 0, i32 7
  store i32 1, ptr %29, align 4, !tbaa !46
  %30 = load ptr, ptr %3, align 8, !tbaa !14
  %31 = load ptr, ptr %5, align 8, !tbaa !41
  %32 = load ptr, ptr %4, align 8, !tbaa !31
  %33 = call i32 @ff_get_extradata(ptr noundef %30, ptr noundef %31, ptr noundef %32, i32 noundef 1)
  store i32 %33, ptr %7, align 4, !tbaa !47
  %34 = icmp slt i32 %33, 0
  br i1 %34, label %35, label %37

35:                                               ; preds = %20
  %36 = load i32, ptr %7, align 4, !tbaa !47
  store i32 %36, ptr %2, align 4
  store i32 1, ptr %9, align 4
  br label %73

37:                                               ; preds = %20
  %38 = load ptr, ptr %4, align 8, !tbaa !31
  %39 = call i32 @avio_rl16(ptr noundef %38)
  store i32 %39, ptr %6, align 4, !tbaa !47
  %40 = load i32, ptr %6, align 4, !tbaa !47
  %41 = icmp eq i32 %40, 0
  br i1 %41, label %42, label %43

42:                                               ; preds = %37
  store i32 -1094995529, ptr %2, align 4
  store i32 1, ptr %9, align 4
  br label %73

43:                                               ; preds = %37
  %44 = load ptr, ptr %5, align 8, !tbaa !41
  %45 = getelementptr inbounds nuw %struct.AVCodecParameters, ptr %44, i32 0, i32 24
  %46 = load i32, ptr %6, align 4, !tbaa !47
  call void @av_channel_layout_default(ptr noundef %45, i32 noundef %46)
  %47 = load ptr, ptr %4, align 8, !tbaa !31
  %48 = call i32 @avio_rl32(ptr noundef %47)
  %49 = load ptr, ptr %5, align 8, !tbaa !41
  %50 = getelementptr inbounds nuw %struct.AVCodecParameters, ptr %49, i32 0, i32 25
  store i32 %48, ptr %50, align 8, !tbaa !48
  %51 = load ptr, ptr %5, align 8, !tbaa !41
  %52 = getelementptr inbounds nuw %struct.AVCodecParameters, ptr %51, i32 0, i32 25
  %53 = load i32, ptr %52, align 8, !tbaa !48
  %54 = icmp sle i32 %53, 0
  br i1 %54, label %55, label %56

55:                                               ; preds = %43
  store i32 -1094995529, ptr %2, align 4
  store i32 1, ptr %9, align 4
  br label %73

56:                                               ; preds = %43
  %57 = load ptr, ptr %4, align 8, !tbaa !31
  %58 = call i64 @avio_skip(ptr noundef %57, i64 noundef 4)
  %59 = load ptr, ptr %4, align 8, !tbaa !31
  %60 = call i32 @avio_rl32(ptr noundef %59)
  %61 = zext i32 %60 to i64
  %62 = load ptr, ptr %8, align 8, !tbaa !32
  %63 = getelementptr inbounds nuw %struct.AVStream, ptr %62, i32 0, i32 7
  store i64 %61, ptr %63, align 8, !tbaa !49
  %64 = load i32, ptr %6, align 4, !tbaa !47
  %65 = load ptr, ptr %5, align 8, !tbaa !41
  %66 = getelementptr inbounds nuw %struct.AVCodecParameters, ptr %65, i32 0, i32 26
  store i32 %64, ptr %66, align 4, !tbaa !50
  %67 = load ptr, ptr %8, align 8, !tbaa !32
  %68 = load ptr, ptr %5, align 8, !tbaa !41
  %69 = getelementptr inbounds nuw %struct.AVCodecParameters, ptr %68, i32 0, i32 25
  %70 = load i32, ptr %69, align 8, !tbaa !48
  call void @avpriv_set_pts_info(ptr noundef %67, i32 noundef 64, i32 noundef 1, i32 noundef %70)
  %71 = load ptr, ptr %4, align 8, !tbaa !31
  %72 = call i64 @avio_seek(ptr noundef %71, i64 noundef 48, i32 noundef 0)
  store i32 0, ptr %2, align 4
  store i32 1, ptr %9, align 4
  br label %73

73:                                               ; preds = %56, %55, %42, %35, %19
  call void @llvm.lifetime.end.p0(i64 8, ptr %8) #3
  call void @llvm.lifetime.end.p0(i64 4, ptr %7) #3
  call void @llvm.lifetime.end.p0(i64 4, ptr %6) #3
  call void @llvm.lifetime.end.p0(i64 8, ptr %5) #3
  call void @llvm.lifetime.end.p0(i64 8, ptr %4) #3
  %74 = load i32, ptr %2, align 4
  ret i32 %74
}

declare i32 @ff_pcm_read_packet(ptr noundef, ptr noundef) #1

declare i32 @ff_pcm_read_seek(ptr noundef, i32 noundef, i64 noundef, i32 noundef) #1

; Function Attrs: nocallback nofree nosync nounwind willreturn memory(argmem: readwrite)
declare void @llvm.lifetime.start.p0(i64 immarg, ptr captures(none)) #2

declare i64 @avio_skip(ptr noundef, i64 noundef) #1

declare ptr @avformat_new_stream(ptr noundef, ptr noundef) #1

declare i32 @ff_get_extradata(ptr noundef, ptr noundef, ptr noundef, i32 noundef) #1

declare i32 @avio_rl16(ptr noundef) #1

declare void @av_channel_layout_default(ptr noundef, i32 noundef) #1

declare i32 @avio_rl32(ptr noundef) #1

declare void @avpriv_set_pts_info(ptr noundef, i32 noundef, i32 noundef, i32 noundef) #1

declare i64 @avio_seek(ptr noundef, i64 noundef, i32 noundef) #1

; Function Attrs: nocallback nofree nosync nounwind willreturn memory(argmem: readwrite)
declare void @llvm.lifetime.end.p0(i64 immarg, ptr captures(none)) #2


!llvm.module.flags = !{!0, !1, !2, !3}

!0 = !{i32 1, !"wchar_size", i32 4}
!1 = !{i32 8, !"PIC Level", i32 2}
!2 = !{i32 7, !"uwtable", i32 2}
!3 = !{i32 1, !"override-stack-alignment", i32 16}
!4 = !{!5, !5, i64 0}
!5 = !{!"p1 _ZTS11AVProbeData", !6, i64 0}
!6 = !{!"any pointer", !7, i64 0}
!7 = !{!"omnipotent char", !8, i64 0}
!8 = !{!"Simple C/C++ TBAA"}
!9 = !{!10, !11, i64 8}
!10 = !{!"AVProbeData", !11, i64 0, !11, i64 8, !12, i64 16, !11, i64 24}
!11 = !{!"p1 omnipotent char", !6, i64 0}
!12 = !{!"int", !7, i64 0}
!13 = !{!7, !7, i64 0}
!14 = !{!15, !15, i64 0}
!15 = !{!"p1 _ZTS15AVFormatContext", !6, i64 0}
!16 = !{!17, !21, i64 32}
!17 = !{!"AVFormatContext", !18, i64 0, !19, i64 8, !20, i64 16, !6, i64 24, !21, i64 32, !12, i64 40, !12, i64 44, !22, i64 48, !12, i64 56, !24, i64 64, !12, i64 72, !25, i64 80, !11, i64 88, !26, i64 96, !26, i64 104, !26, i64 112, !12, i64 120, !12, i64 124, !12, i64 128, !26, i64 136, !26, i64 144, !11, i64 152, !12, i64 160, !12, i64 164, !27, i64 168, !12, i64 176, !12, i64 180, !12, i64 184, !12, i64 188, !28, i64 192, !26, i64 200, !12, i64 208, !12, i64 212, !29, i64 216, !12, i64 232, !12, i64 236, !12, i64 240, !12, i64 244, !26, i64 248, !12, i64 256, !12, i64 260, !12, i64 264, !12, i64 268, !12, i64 272, !12, i64 276, !12, i64 280, !12, i64 284, !12, i64 288, !12, i64 292, !12, i64 296, !12, i64 300, !26, i64 304, !12, i64 312, !12, i64 316, !12, i64 320, !12, i64 324, !12, i64 328, !11, i64 336, !11, i64 344, !11, i64 352, !11, i64 360, !12, i64 368, !30, i64 376, !30, i64 384, !30, i64 392, !30, i64 400, !12, i64 408, !6, i64 416, !6, i64 424, !26, i64 432, !11, i64 440, !6, i64 448, !6, i64 456, !26, i64 464}
!18 = !{!"p1 _ZTS7AVClass", !6, i64 0}
!19 = !{!"p1 _ZTS13AVInputFormat", !6, i64 0}
!20 = !{!"p1 _ZTS14AVOutputFormat", !6, i64 0}
!21 = !{!"p1 _ZTS11AVIOContext", !6, i64 0}
!22 = !{!"p2 _ZTS8AVStream", !23, i64 0}
!23 = !{!"any p2 pointer", !6, i64 0}
!24 = !{!"p2 _ZTS13AVStreamGroup", !23, i64 0}
!25 = !{!"p2 _ZTS9AVChapter", !23, i64 0}
!26 = !{!"long", !7, i64 0}
!27 = !{!"p2 _ZTS9AVProgram", !23, i64 0}
!28 = !{!"p1 _ZTS12AVDictionary", !6, i64 0}
!29 = !{!"AVIOInterruptCB", !6, i64 0, !6, i64 8}
!30 = !{!"p1 _ZTS7AVCodec", !6, i64 0}
!31 = !{!21, !21, i64 0}
!32 = !{!33, !33, i64 0}
!33 = !{!"p1 _ZTS8AVStream", !6, i64 0}
!34 = !{!35, !36, i64 16}
!35 = !{!"AVStream", !18, i64 0, !12, i64 8, !12, i64 12, !36, i64 16, !6, i64 24, !37, i64 32, !26, i64 40, !26, i64 48, !26, i64 56, !12, i64 64, !12, i64 68, !37, i64 72, !28, i64 80, !37, i64 88, !38, i64 96, !12, i64 200, !37, i64 204, !12, i64 212}
!36 = !{!"p1 _ZTS17AVCodecParameters", !6, i64 0}
!37 = !{!"AVRational", !12, i64 0, !12, i64 4}
!38 = !{!"AVPacket", !39, i64 0, !26, i64 8, !26, i64 16, !11, i64 24, !12, i64 32, !12, i64 36, !12, i64 40, !40, i64 48, !12, i64 56, !26, i64 64, !26, i64 72, !6, i64 80, !39, i64 88, !37, i64 96}
!39 = !{!"p1 _ZTS11AVBufferRef", !6, i64 0}
!40 = !{!"p1 _ZTS16AVPacketSideData", !6, i64 0}
!41 = !{!36, !36, i64 0}
!42 = !{!43, !12, i64 0}
!43 = !{!"AVCodecParameters", !12, i64 0, !12, i64 4, !12, i64 8, !11, i64 16, !12, i64 24, !40, i64 32, !12, i64 40, !12, i64 44, !26, i64 48, !12, i64 56, !12, i64 60, !12, i64 64, !12, i64 68, !12, i64 72, !12, i64 76, !37, i64 80, !37, i64 88, !12, i64 96, !12, i64 100, !12, i64 104, !12, i64 108, !12, i64 112, !12, i64 116, !12, i64 120, !44, i64 128, !12, i64 152, !12, i64 156, !12, i64 160, !12, i64 164, !12, i64 168, !12, i64 172}
!44 = !{!"AVChannelLayout", !12, i64 0, !12, i64 4, !7, i64 8, !6, i64 16}
!45 = !{!43, !12, i64 4}
!46 = !{!43, !12, i64 44}
!47 = !{!12, !12, i64 0}
!48 = !{!43, !12, i64 152}
!49 = !{!35, !26, i64 48}
!50 = !{!43, !12, i64 156}
